target datalayout = "e-m:e-p270:32:32-p271:32:32-p272:64:64-i64:64-i128:128-f80:128-n8:16:32:64-S128"
target triple = "x86_64-pc-linux-gnu"

%struct.lua_TValue = type { %union.Value, [1 x i32], i32 }
%union.Value = type { ptr }
%struct.LuaTable = type { i8, i8, i8, i8, i8, i8, i8, i8, i32, %union.anon.2, ptr, ptr, ptr, ptr }
%union.anon.2 = type { i32 }

@.str.22 = private unnamed_addr constant [30 x i8] c"table modified during sorting\00", align 1

; Function Attrs: inlinehint mustprogress nounwind uwtable
define linkonce_odr dso_local void @_Z9sort_swapP9lua_StateP8LuaTableii(ptr noundef %0, ptr noundef %1, i32 noundef %2, i32 noundef %3) #6 comdat {
  %5 = alloca ptr, align 8
  %6 = alloca ptr, align 8
  %7 = alloca i32, align 4
  %8 = alloca i32, align 4
  %9 = alloca ptr, align 8
  %10 = alloca i32, align 4
  %11 = alloca %struct.lua_TValue, align 8
  %12 = alloca ptr, align 8
  %13 = alloca ptr, align 8
  %14 = alloca ptr, align 8
  %15 = alloca ptr, align 8
  %16 = alloca ptr, align 8
  %17 = alloca ptr, align 8
  store ptr %0, ptr %5, align 8, !tbaa !4
  store ptr %1, ptr %6, align 8, !tbaa !22
  store i32 %2, ptr %7, align 4, !tbaa !23
  store i32 %3, ptr %8, align 4, !tbaa !23
  call void @llvm.lifetime.start.p0(i64 8, ptr %9) #7
  %18 = load ptr, ptr %6, align 8, !tbaa !22
  %19 = getelementptr inbounds nuw %struct.LuaTable, ptr %18, i32 0, i32 11
  %20 = load ptr, ptr %19, align 8, !tbaa !27
  store ptr %20, ptr %9, align 8, !tbaa !28
  call void @llvm.lifetime.start.p0(i64 4, ptr %10) #7
  %21 = load ptr, ptr %6, align 8, !tbaa !22
  %22 = getelementptr inbounds nuw %struct.LuaTable, ptr %21, i32 0, i32 8
  %23 = load i32, ptr %22, align 8, !tbaa !24
  store i32 %23, ptr %10, align 4, !tbaa !23
  call void @llvm.lifetime.start.p0(i64 16, ptr %11) #7
  call void @llvm.lifetime.start.p0(i64 8, ptr %12) #7
  %24 = load ptr, ptr %9, align 8, !tbaa !28
  %25 = load i32, ptr %7, align 4, !tbaa !23
  %26 = sext i32 %25 to i64
  %27 = getelementptr inbounds %struct.lua_TValue, ptr %24, i64 %26
  store ptr %27, ptr %12, align 8, !tbaa !28
  call void @llvm.lifetime.start.p0(i64 8, ptr %13) #7
  store ptr %11, ptr %13, align 8, !tbaa !28
  %28 = load ptr, ptr %12, align 8, !tbaa !28
  %29 = load ptr, ptr %13, align 8, !tbaa !28
  call void @llvm.memcpy.p0.p0.i64(ptr align 8 %29, ptr align 8 %28, i64 16, i1 false), !tbaa.struct !30
  call void @llvm.lifetime.end.p0(i64 8, ptr %13) #7
  call void @llvm.lifetime.end.p0(i64 8, ptr %12) #7
  call void @llvm.lifetime.start.p0(i64 8, ptr %14) #7
  %30 = load ptr, ptr %9, align 8, !tbaa !28
  %31 = load i32, ptr %8, align 4, !tbaa !23
  %32 = sext i32 %31 to i64
  %33 = getelementptr inbounds %struct.lua_TValue, ptr %30, i64 %32
  store ptr %33, ptr %14, align 8, !tbaa !28
  call void @llvm.lifetime.start.p0(i64 8, ptr %15) #7
  %34 = load ptr, ptr %9, align 8, !tbaa !28
  %35 = load i32, ptr %7, align 4, !tbaa !23
  %36 = sext i32 %35 to i64
  %37 = getelementptr inbounds %struct.lua_TValue, ptr %34, i64 %36
  store ptr %37, ptr %15, align 8, !tbaa !28
  %38 = load ptr, ptr %14, align 8, !tbaa !28
  %39 = load ptr, ptr %15, align 8, !tbaa !28
  call void @llvm.memcpy.p0.p0.i64(ptr align 8 %39, ptr align 8 %38, i64 16, i1 false), !tbaa.struct !30
  call void @llvm.lifetime.end.p0(i64 8, ptr %15) #7
  call void @llvm.lifetime.end.p0(i64 8, ptr %14) #7
  call void @llvm.lifetime.start.p0(i64 8, ptr %16) #7
  store ptr %11, ptr %16, align 8, !tbaa !28
  call void @llvm.lifetime.start.p0(i64 8, ptr %17) #7
  %40 = load ptr, ptr %9, align 8, !tbaa !28
  %41 = load i32, ptr %8, align 4, !tbaa !23
  %42 = sext i32 %41 to i64
  %43 = getelementptr inbounds %struct.lua_TValue, ptr %40, i64 %42
  store ptr %43, ptr %17, align 8, !tbaa !28
  %44 = load ptr, ptr %16, align 8, !tbaa !28
  %45 = load ptr, ptr %17, align 8, !tbaa !28
  call void @llvm.memcpy.p0.p0.i64(ptr align 8 %45, ptr align 8 %44, i64 16, i1 false), !tbaa.struct !30
  call void @llvm.lifetime.end.p0(i64 8, ptr %17) #7
  call void @llvm.lifetime.end.p0(i64 8, ptr %16) #7
  call void @llvm.lifetime.end.p0(i64 16, ptr %11) #7
  call void @llvm.lifetime.end.p0(i64 4, ptr %10) #7
  call void @llvm.lifetime.end.p0(i64 8, ptr %9) #7
  ret void
}

; Function Attrs: inlinehint mustprogress uwtable
define linkonce_odr dso_local noundef i32 @_Z9sort_lessP9lua_StateP8LuaTableiiPFiS0_PK10lua_TValueS5_E(ptr noundef %0, ptr noundef %1, i32 noundef %2, i32 noundef %3, ptr noundef %4) #5 comdat {
  %6 = alloca ptr, align 8
  %7 = alloca ptr, align 8
  %8 = alloca i32, align 4
  %9 = alloca i32, align 4
  %10 = alloca ptr, align 8
  %11 = alloca ptr, align 8
  %12 = alloca i32, align 4
  %13 = alloca i32, align 4
  store ptr %0, ptr %6, align 8, !tbaa !4
  store ptr %1, ptr %7, align 8, !tbaa !22
  store i32 %2, ptr %8, align 4, !tbaa !23
  store i32 %3, ptr %9, align 4, !tbaa !23
  store ptr %4, ptr %10, align 8, !tbaa !54
  call void @llvm.lifetime.start.p0(i64 8, ptr %11) #7
  %14 = load ptr, ptr %7, align 8, !tbaa !22
  %15 = getelementptr inbounds nuw %struct.LuaTable, ptr %14, i32 0, i32 11
  %16 = load ptr, ptr %15, align 8, !tbaa !27
  store ptr %16, ptr %11, align 8, !tbaa !28
  call void @llvm.lifetime.start.p0(i64 4, ptr %12) #7
  %17 = load ptr, ptr %7, align 8, !tbaa !22
  %18 = getelementptr inbounds nuw %struct.LuaTable, ptr %17, i32 0, i32 8
  %19 = load i32, ptr %18, align 8, !tbaa !24
  store i32 %19, ptr %12, align 4, !tbaa !23
  call void @llvm.lifetime.start.p0(i64 4, ptr %13) #7
  %20 = load ptr, ptr %10, align 8, !tbaa !54
  %21 = load ptr, ptr %6, align 8, !tbaa !4
  %22 = load ptr, ptr %11, align 8, !tbaa !28
  %23 = load i32, ptr %8, align 4, !tbaa !23
  %24 = sext i32 %23 to i64
  %25 = getelementptr inbounds %struct.lua_TValue, ptr %22, i64 %24
  %26 = load ptr, ptr %11, align 8, !tbaa !28
  %27 = load i32, ptr %9, align 4, !tbaa !23
  %28 = sext i32 %27 to i64
  %29 = getelementptr inbounds %struct.lua_TValue, ptr %26, i64 %28
  %30 = call noundef i32 %20(ptr noundef %21, ptr noundef %25, ptr noundef %29)
  store i32 %30, ptr %13, align 4, !tbaa !23
  %31 = load ptr, ptr %7, align 8, !tbaa !22
  %32 = getelementptr inbounds nuw %struct.LuaTable, ptr %31, i32 0, i32 8
  %33 = load i32, ptr %32, align 8, !tbaa !24
  %34 = load i32, ptr %12, align 4, !tbaa !23
  %35 = icmp ne i32 %33, %34
  br i1 %35, label %36, label %38

36:                                               ; preds = %5
  %37 = load ptr, ptr %6, align 8, !tbaa !4
  call void (ptr, ptr, ...) @_Z11luaL_errorLP9lua_StatePKcz(ptr noundef %37, ptr noundef @.str.22) #8
  unreachable

38:                                               ; preds = %5
  %39 = load i32, ptr %13, align 4, !tbaa !23
  call void @llvm.lifetime.end.p0(i64 4, ptr %13) #7
  call void @llvm.lifetime.end.p0(i64 4, ptr %12) #7
  call void @llvm.lifetime.end.p0(i64 8, ptr %11) #7
  ret i32 %39
}

; Function Attrs: mustprogress uwtable
define internal void @_ZL13sort_siftheapP9lua_StateP8LuaTableiiPFiS0_PK10lua_TValueS5_Ei(ptr noundef %0, ptr noundef %1, i32 noundef %2, i32 noundef %3, ptr noundef %4, i32 noundef %5) #0 {
  %7 = alloca ptr, align 8
  %8 = alloca ptr, align 8
  %9 = alloca i32, align 4
  %10 = alloca i32, align 4
  %11 = alloca ptr, align 8
  %12 = alloca i32, align 4
  %13 = alloca i32, align 4
  %14 = alloca i32, align 4
  %15 = alloca i32, align 4
  %16 = alloca i32, align 4
  %17 = alloca i32, align 4
  %18 = alloca i32, align 4
  store ptr %0, ptr %7, align 8, !tbaa !4
  store ptr %1, ptr %8, align 8, !tbaa !22
  store i32 %2, ptr %9, align 4, !tbaa !23
  store i32 %3, ptr %10, align 4, !tbaa !23
  store ptr %4, ptr %11, align 8, !tbaa !54
  store i32 %5, ptr %12, align 4, !tbaa !23
  call void @llvm.lifetime.start.p0(i64 4, ptr %13) #7
  %19 = load i32, ptr %10, align 4, !tbaa !23
  %20 = load i32, ptr %9, align 4, !tbaa !23
  %21 = sub nsw i32 %19, %20
  %22 = add nsw i32 %21, 1
  store i32 %22, ptr %13, align 4, !tbaa !23
  br label %23

23:                                               ; preds = %87, %6
  %24 = load i32, ptr %12, align 4, !tbaa !23
  %25 = mul nsw i32 %24, 2
  %26 = add nsw i32 %25, 2
  %27 = load i32, ptr %13, align 4, !tbaa !23
  %28 = icmp slt i32 %26, %27
  br i1 %28, label %29, label %88

29:                                               ; preds = %23
  call void @llvm.lifetime.start.p0(i64 4, ptr %14) #7
  %30 = load i32, ptr %12, align 4, !tbaa !23
  %31 = mul nsw i32 %30, 2
  %32 = add nsw i32 %31, 1
  store i32 %32, ptr %14, align 4, !tbaa !23
  call void @llvm.lifetime.start.p0(i64 4, ptr %15) #7
  %33 = load i32, ptr %12, align 4, !tbaa !23
  %34 = mul nsw i32 %33, 2
  %35 = add nsw i32 %34, 2
  store i32 %35, ptr %15, align 4, !tbaa !23
  call void @llvm.lifetime.start.p0(i64 4, ptr %16) #7
  %36 = load i32, ptr %12, align 4, !tbaa !23
  store i32 %36, ptr %16, align 4, !tbaa !23
  %37 = load ptr, ptr %7, align 8, !tbaa !4
  %38 = load ptr, ptr %8, align 8, !tbaa !22
  %39 = load i32, ptr %9, align 4, !tbaa !23
  %40 = load i32, ptr %16, align 4, !tbaa !23
  %41 = add nsw i32 %39, %40
  %42 = load i32, ptr %9, align 4, !tbaa !23
  %43 = load i32, ptr %14, align 4, !tbaa !23
  %44 = add nsw i32 %42, %43
  %45 = load ptr, ptr %11, align 8, !tbaa !54
  %46 = call noundef i32 @_Z9sort_lessP9lua_StateP8LuaTableiiPFiS0_PK10lua_TValueS5_E(ptr noundef %37, ptr noundef %38, i32 noundef %41, i32 noundef %44, ptr noundef %45)
  %47 = icmp ne i32 %46, 0
  br i1 %47, label %48, label %50

48:                                               ; preds = %29
  %49 = load i32, ptr %14, align 4, !tbaa !23
  br label %52

50:                                               ; preds = %29
  %51 = load i32, ptr %16, align 4, !tbaa !23
  br label %52

52:                                               ; preds = %50, %48
  %53 = phi i32 [ %49, %48 ], [ %51, %50 ]
  store i32 %53, ptr %16, align 4, !tbaa !23
  %54 = load ptr, ptr %7, align 8, !tbaa !4
  %55 = load ptr, ptr %8, align 8, !tbaa !22
  %56 = load i32, ptr %9, align 4, !tbaa !23
  %57 = load i32, ptr %16, align 4, !tbaa !23
  %58 = add nsw i32 %56, %57
  %59 = load i32, ptr %9, align 4, !tbaa !23
  %60 = load i32, ptr %15, align 4, !tbaa !23
  %61 = add nsw i32 %59, %60
  %62 = load ptr, ptr %11, align 8, !tbaa !54
  %63 = call noundef i32 @_Z9sort_lessP9lua_StateP8LuaTableiiPFiS0_PK10lua_TValueS5_E(ptr noundef %54, ptr noundef %55, i32 noundef %58, i32 noundef %61, ptr noundef %62)
  %64 = icmp ne i32 %63, 0
  br i1 %64, label %65, label %67

65:                                               ; preds = %52
  %66 = load i32, ptr %15, align 4, !tbaa !23
  br label %69

67:                                               ; preds = %52
  %68 = load i32, ptr %16, align 4, !tbaa !23
  br label %69

69:                                               ; preds = %67, %65
  %70 = phi i32 [ %66, %65 ], [ %68, %67 ]
  store i32 %70, ptr %16, align 4, !tbaa !23
  %71 = load i32, ptr %16, align 4, !tbaa !23
  %72 = load i32, ptr %12, align 4, !tbaa !23
  %73 = icmp eq i32 %71, %72
  br i1 %73, label %74, label %75

74:                                               ; preds = %69
  store i32 3, ptr %17, align 4
  br label %85

75:                                               ; preds = %69
  %76 = load ptr, ptr %7, align 8, !tbaa !4
  %77 = load ptr, ptr %8, align 8, !tbaa !22
  %78 = load i32, ptr %9, align 4, !tbaa !23
  %79 = load i32, ptr %12, align 4, !tbaa !23
  %80 = add nsw i32 %78, %79
  %81 = load i32, ptr %9, align 4, !tbaa !23
  %82 = load i32, ptr %16, align 4, !tbaa !23
  %83 = add nsw i32 %81, %82
  call void @_Z9sort_swapP9lua_StateP8LuaTableii(ptr noundef %76, ptr noundef %77, i32 noundef %80, i32 noundef %83)
  %84 = load i32, ptr %16, align 4, !tbaa !23
  store i32 %84, ptr %12, align 4, !tbaa !23
  store i32 0, ptr %17, align 4
  br label %85

85:                                               ; preds = %75, %74
  call void @llvm.lifetime.end.p0(i64 4, ptr %16) #7
  call void @llvm.lifetime.end.p0(i64 4, ptr %15) #7
  call void @llvm.lifetime.end.p0(i64 4, ptr %14) #7
  %86 = load i32, ptr %17, align 4
  switch i32 %86, label %118 [
    i32 0, label %87
    i32 3, label %88
  ]

87:                                               ; preds = %85
  br label %23, !llvm.loop !73

88:                                               ; preds = %85, %23
  call void @llvm.lifetime.start.p0(i64 4, ptr %18) #7
  %89 = load i32, ptr %12, align 4, !tbaa !23
  %90 = mul nsw i32 %89, 2
  %91 = add nsw i32 %90, 1
  store i32 %91, ptr %18, align 4, !tbaa !23
  %92 = load i32, ptr %18, align 4, !tbaa !23
  %93 = load i32, ptr %13, align 4, !tbaa !23
  %94 = sub nsw i32 %93, 1
  %95 = icmp eq i32 %92, %94
  br i1 %95, label %96, label %117

96:                                               ; preds = %88
  %97 = load ptr, ptr %7, align 8, !tbaa !4
  %98 = load ptr, ptr %8, align 8, !tbaa !22
  %99 = load i32, ptr %9, align 4, !tbaa !23
  %100 = load i32, ptr %12, align 4, !tbaa !23
  %101 = add nsw i32 %99, %100
  %102 = load i32, ptr %9, align 4, !tbaa !23
  %103 = load i32, ptr %18, align 4, !tbaa !23
  %104 = add nsw i32 %102, %103
  %105 = load ptr, ptr %11, align 8, !tbaa !54
  %106 = call noundef i32 @_Z9sort_lessP9lua_StateP8LuaTableiiPFiS0_PK10lua_TValueS5_E(ptr noundef %97, ptr noundef %98, i32 noundef %101, i32 noundef %104, ptr noundef %105)
  %107 = icmp ne i32 %106, 0
  br i1 %107, label %108, label %117

108:                                              ; preds = %96
  %109 = load ptr, ptr %7, align 8, !tbaa !4
  %110 = load ptr, ptr %8, align 8, !tbaa !22
  %111 = load i32, ptr %9, align 4, !tbaa !23
  %112 = load i32, ptr %12, align 4, !tbaa !23
  %113 = add nsw i32 %111, %112
  %114 = load i32, ptr %9, align 4, !tbaa !23
  %115 = load i32, ptr %18, align 4, !tbaa !23
  %116 = add nsw i32 %114, %115
  call void @_Z9sort_swapP9lua_StateP8LuaTableii(ptr noundef %109, ptr noundef %110, i32 noundef %113, i32 noundef %116)
  br label %117

117:                                              ; preds = %108, %96, %88
  call void @llvm.lifetime.end.p0(i64 4, ptr %18) #7
  call void @llvm.lifetime.end.p0(i64 4, ptr %13) #7
  ret void

118:                                              ; preds = %85
  unreachable
}