; Function Attrs: mustprogress uwtable
define internal fastcc void @_ZL13sort_siftheapP9lua_StateP8LuaTableiiPFiS0_PK10lua_TValueS5_Ei(ptr noundef %0, ptr noundef readonly captures(none) %1, i32 noundef %2, i32 noundef %3, ptr noundef readonly captures(none) %4, i32 noundef range(i32 0, 1073741823) %5) unnamed_addr #0 {
  %7 = alloca %struct.lua_TValue, align 8
  %8 = alloca %struct.lua_TValue, align 8
  %9 = sub nsw i32 %3, %2
  %10 = shl nuw nsw i32 %5, 1
  %11 = add nuw nsw i32 %10, 2
  %.not66 = icmp sgt i32 %11, %9
  br i1 %.not66, label %.thread, label %.lr.ph

.lr.ph:                                           ; preds = %6
  %12 = getelementptr inbounds nuw i8, ptr %1, i64 24
  %13 = getelementptr inbounds nuw i8, ptr %1, i64 8
  br label %14

14:                                               ; preds = %.lr.ph, %42
  %15 = phi i32 [ %11, %.lr.ph ], [ %49, %42 ]
  %16 = phi i32 [ %10, %.lr.ph ], [ %48, %42 ]
  %.067 = phi i32 [ %5, %.lr.ph ], [ %40, %42 ]
  %17 = or disjoint i32 %16, 1
  %18 = add nsw i32 %.067, %2
  %19 = add nsw i32 %17, %2
  %20 = load ptr, ptr %12, align 8, !tbaa !23
  %21 = load i32, ptr %13, align 8, !tbaa !20
  %22 = sext i32 %18 to i64
  %23 = getelementptr inbounds %struct.lua_TValue, ptr %20, i64 %22
  %24 = sext i32 %19 to i64
  %25 = getelementptr inbounds %struct.lua_TValue, ptr %20, i64 %24
  %26 = tail call noundef i32 %4(ptr noundef %0, ptr noundef %23, ptr noundef %25)
  %27 = load i32, ptr %13, align 8, !tbaa !20
  %.not.i = icmp eq i32 %27, %21
  br i1 %.not.i, label %_Z9sort_lessP9lua_StateP8LuaTableiiPFiS0_PK10lua_TValueS5_E.exit, label %28

28:                                               ; preds = %14
  tail call void (ptr, ptr, ...) @_Z11luaL_errorLP9lua_StatePKcz(ptr noundef %0, ptr noundef nonnull @.str.22) #6
  unreachable

_Z9sort_lessP9lua_StateP8LuaTableiiPFiS0_PK10lua_TValueS5_E.exit: ; preds = %14
  %.not54 = icmp eq i32 %26, 0
  %29 = select i1 %.not54, i32 %.067, i32 %17
  %30 = add nsw i32 %29, %2
  %31 = add nsw i32 %15, %2
  %32 = load ptr, ptr %12, align 8, !tbaa !23
  %33 = sext i32 %30 to i64
  %34 = getelementptr inbounds %struct.lua_TValue, ptr %32, i64 %33
  %35 = sext i32 %31 to i64
  %36 = getelementptr inbounds %struct.lua_TValue, ptr %32, i64 %35
  %37 = tail call noundef i32 %4(ptr noundef %0, ptr noundef %34, ptr noundef %36)
  %38 = load i32, ptr %13, align 8, !tbaa !20
  %.not.i57 = icmp eq i32 %38, %21
  br i1 %.not.i57, label %_Z9sort_lessP9lua_StateP8LuaTableiiPFiS0_PK10lua_TValueS5_E.exit58, label %39

39:                                               ; preds = %_Z9sort_lessP9lua_StateP8LuaTableiiPFiS0_PK10lua_TValueS5_E.exit
  tail call void (ptr, ptr, ...) @_Z11luaL_errorLP9lua_StatePKcz(ptr noundef %0, ptr noundef nonnull @.str.22) #6
  unreachable

_Z9sort_lessP9lua_StateP8LuaTableiiPFiS0_PK10lua_TValueS5_E.exit58: ; preds = %_Z9sort_lessP9lua_StateP8LuaTableiiPFiS0_PK10lua_TValueS5_E.exit
  %.not55 = icmp eq i32 %37, 0
  %40 = select i1 %.not55, i32 %29, i32 %15
  %41 = icmp eq i32 %40, %.067
  br i1 %41, label %_Z9sort_lessP9lua_StateP8LuaTableiiPFiS0_PK10lua_TValueS5_E.exit58..thread.loopexit_crit_edge, label %42

_Z9sort_lessP9lua_StateP8LuaTableiiPFiS0_PK10lua_TValueS5_E.exit58..thread.loopexit_crit_edge: ; preds = %_Z9sort_lessP9lua_StateP8LuaTableiiPFiS0_PK10lua_TValueS5_E.exit58
  %.pre69 = shl nuw nsw i32 %.067, 1
  br label %.thread

42:                                               ; preds = %_Z9sort_lessP9lua_StateP8LuaTableiiPFiS0_PK10lua_TValueS5_E.exit58
  %43 = add nsw i32 %40, %2
  %44 = load ptr, ptr %12, align 8, !tbaa !23
  call void @llvm.lifetime.start.p0(i64 16, ptr nonnull %8)
  %45 = getelementptr inbounds %struct.lua_TValue, ptr %44, i64 %22
  call void @llvm.memcpy.p0.p0.i64(ptr noundef nonnull align 8 dereferenceable(16) %8, ptr noundef nonnull align 8 dereferenceable(16) %45, i64 16, i1 false), !tbaa.struct !25
  %46 = sext i32 %43 to i64
  %47 = getelementptr inbounds %struct.lua_TValue, ptr %44, i64 %46
  tail call void @llvm.memcpy.p0.p0.i64(ptr noundef nonnull align 8 dereferenceable(16) %45, ptr noundef nonnull align 8 dereferenceable(16) %47, i64 16, i1 false), !tbaa.struct !25
  call void @llvm.memcpy.p0.p0.i64(ptr noundef nonnull align 8 dereferenceable(16) %47, ptr noundef nonnull align 8 dereferenceable(16) %8, i64 16, i1 false), !tbaa.struct !25
  call void @llvm.lifetime.end.p0(i64 16, ptr nonnull %8)
  %48 = shl nuw nsw i32 %40, 1
  %49 = add nuw nsw i32 %48, 2
  %.not = icmp sgt i32 %49, %9
  br i1 %.not, label %.thread, label %14

.thread:                                          ; preds = %42, %_Z9sort_lessP9lua_StateP8LuaTableiiPFiS0_PK10lua_TValueS5_E.exit58..thread.loopexit_crit_edge, %6
  %.pre-phi = phi i32 [ %10, %6 ], [ %.pre69, %_Z9sort_lessP9lua_StateP8LuaTableiiPFiS0_PK10lua_TValueS5_E.exit58..thread.loopexit_crit_edge ], [ %48, %42 ]
  %.0.lcssa = phi i32 [ %5, %6 ], [ %.067, %_Z9sort_lessP9lua_StateP8LuaTableiiPFiS0_PK10lua_TValueS5_E.exit58..thread.loopexit_crit_edge ], [ %40, %42 ]
  %50 = or disjoint i32 %.pre-phi, 1
  %51 = icmp eq i32 %50, %9
  br i1 %51, label %52, label %69

52:                                               ; preds = %.thread
  %53 = add nsw i32 %.0.lcssa, %2
  %54 = getelementptr inbounds nuw i8, ptr %1, i64 24
  %55 = load ptr, ptr %54, align 8, !tbaa !23
  %56 = getelementptr inbounds nuw i8, ptr %1, i64 8
  %57 = load i32, ptr %56, align 8, !tbaa !20
  %58 = sext i32 %53 to i64
  %59 = getelementptr inbounds %struct.lua_TValue, ptr %55, i64 %58
  %60 = sext i32 %3 to i64
  %61 = getelementptr inbounds %struct.lua_TValue, ptr %55, i64 %60
  %62 = tail call noundef i32 %4(ptr noundef %0, ptr noundef %59, ptr noundef %61)
  %63 = load i32, ptr %56, align 8, !tbaa !20
  %.not.i59 = icmp eq i32 %63, %57
  br i1 %.not.i59, label %_Z9sort_lessP9lua_StateP8LuaTableiiPFiS0_PK10lua_TValueS5_E.exit60, label %64

64:                                               ; preds = %52
  tail call void (ptr, ptr, ...) @_Z11luaL_errorLP9lua_StatePKcz(ptr noundef %0, ptr noundef nonnull @.str.22) #6
  unreachable

_Z9sort_lessP9lua_StateP8LuaTableiiPFiS0_PK10lua_TValueS5_E.exit60: ; preds = %52
  %.not56 = icmp eq i32 %62, 0
  br i1 %.not56, label %69, label %65

65:                                               ; preds = %_Z9sort_lessP9lua_StateP8LuaTableiiPFiS0_PK10lua_TValueS5_E.exit60
  %66 = load ptr, ptr %54, align 8, !tbaa !23
  call void @llvm.lifetime.start.p0(i64 16, ptr nonnull %7)
  %67 = getelementptr inbounds %struct.lua_TValue, ptr %66, i64 %58
  call void @llvm.memcpy.p0.p0.i64(ptr noundef nonnull align 8 dereferenceable(16) %7, ptr noundef nonnull align 8 dereferenceable(16) %67, i64 16, i1 false), !tbaa.struct !25
  %68 = getelementptr inbounds %struct.lua_TValue, ptr %66, i64 %60
  tail call void @llvm.memcpy.p0.p0.i64(ptr noundef nonnull align 8 dereferenceable(16) %67, ptr noundef nonnull align 8 dereferenceable(16) %68, i64 16, i1 false), !tbaa.struct !25
  call void @llvm.memcpy.p0.p0.i64(ptr noundef nonnull align 8 dereferenceable(16) %68, ptr noundef nonnull align 8 dereferenceable(16) %7, i64 16, i1 false), !tbaa.struct !25
  call void @llvm.lifetime.end.p0(i64 16, ptr nonnull %7)
  br label %69

69:                                               ; preds = %65, %_Z9sort_lessP9lua_StateP8LuaTableiiPFiS0_PK10lua_TValueS5_E.exit60, %.thread
  ret void
}